; Function Attrs: inlinehint mustprogress nounwind uwtable
define internal fastcc void @_ZN8pybind116detail15argument_loaderIJPZ34test_submodule_custom_type_castersRNS_7module_EE12ArgInspectorRK13ArgInspector1S8_iP13ArgInspector217ArgAlwaysConvertsEED2Ev(ptr noundef nonnull readonly align 8 dereferenceable(136) %0) unnamed_addr #0 align 2 personality ptr @__gxx_personality_v0 {
  %2 = getelementptr inbounds nuw i8, ptr %0, i64 80
  %3 = load ptr, ptr %2, align 8, !tbaa !11
  %4 = getelementptr inbounds nuw i8, ptr %0, i64 96
  %5 = icmp eq ptr %3, %4
  br i1 %5, label %_ZNKSt7__cxx1112basic_stringIcSt11char_traitsIcESaIcEE11_M_is_localEv.exit.thread.i.i.i.i.i.i, label %_ZNKSt7__cxx1112basic_stringIcSt11char_traitsIcESaIcEE11_M_is_localEv.exit.i.i.i.i.i.i

_ZNKSt7__cxx1112basic_stringIcSt11char_traitsIcESaIcEE11_M_is_localEv.exit.thread.i.i.i.i.i.i: ; preds = %1
  %6 = getelementptr inbounds nuw i8, ptr %0, i64 88
  %7 = load i64, ptr %6, align 8, !tbaa !78
  %8 = icmp ult i64 %7, 16
  tail call void @llvm.assume(i1 %8)
  br label %_ZNSt10_Head_baseILm1EN8pybind116detail11type_casterI13ArgInspector1vEELb0EED2Ev.exit.i

_ZNKSt7__cxx1112basic_stringIcSt11char_traitsIcESaIcEE11_M_is_localEv.exit.i.i.i.i.i.i: ; preds = %1
  %9 = load i64, ptr %4, align 8, !tbaa !79
  %10 = add i64 %9, 1
  tail call void @_ZdlPvm(ptr noundef %3, i64 noundef %10) #34
  br label %_ZNSt10_Head_baseILm1EN8pybind116detail11type_casterI13ArgInspector1vEELb0EED2Ev.exit.i

_ZNSt10_Head_baseILm1EN8pybind116detail11type_casterI13ArgInspector1vEELb0EED2Ev.exit.i: ; preds = %_ZNKSt7__cxx1112basic_stringIcSt11char_traitsIcESaIcEE11_M_is_localEv.exit.i.i.i.i.i.i, %_ZNKSt7__cxx1112basic_stringIcSt11char_traitsIcESaIcEE11_M_is_localEv.exit.thread.i.i.i.i.i.i
  %11 = getelementptr inbounds nuw i8, ptr %0, i64 48
  %12 = load ptr, ptr %11, align 8, !tbaa !11
  %13 = getelementptr inbounds nuw i8, ptr %0, i64 64
  %14 = icmp eq ptr %12, %13
  br i1 %14, label %_ZNKSt7__cxx1112basic_stringIcSt11char_traitsIcESaIcEE11_M_is_localEv.exit.thread.i.i.i.i.i.i.i, label %_ZNKSt7__cxx1112basic_stringIcSt11char_traitsIcESaIcEE11_M_is_localEv.exit.i.i.i.i.i.i.i

_ZNKSt7__cxx1112basic_stringIcSt11char_traitsIcESaIcEE11_M_is_localEv.exit.thread.i.i.i.i.i.i.i: ; preds = %_ZNSt10_Head_baseILm1EN8pybind116detail11type_casterI13ArgInspector1vEELb0EED2Ev.exit.i
  %15 = getelementptr inbounds nuw i8, ptr %0, i64 56
  %16 = load i64, ptr %15, align 8, !tbaa !78
  %17 = icmp ult i64 %16, 16
  tail call void @llvm.assume(i1 %17)
  br label %_ZNSt10_Head_baseILm2EN8pybind116detail11type_casterI13ArgInspector1vEELb0EED2Ev.exit.i.i

_ZNKSt7__cxx1112basic_stringIcSt11char_traitsIcESaIcEE11_M_is_localEv.exit.i.i.i.i.i.i.i: ; preds = %_ZNSt10_Head_baseILm1EN8pybind116detail11type_casterI13ArgInspector1vEELb0EED2Ev.exit.i
  %18 = load i64, ptr %13, align 8, !tbaa !79
  %19 = add i64 %18, 1
  tail call void @_ZdlPvm(ptr noundef %12, i64 noundef %19) #34
  br label %_ZNSt10_Head_baseILm2EN8pybind116detail11type_casterI13ArgInspector1vEELb0EED2Ev.exit.i.i

_ZNSt10_Head_baseILm2EN8pybind116detail11type_casterI13ArgInspector1vEELb0EED2Ev.exit.i.i: ; preds = %_ZNKSt7__cxx1112basic_stringIcSt11char_traitsIcESaIcEE11_M_is_localEv.exit.i.i.i.i.i.i.i, %_ZNKSt7__cxx1112basic_stringIcSt11char_traitsIcESaIcEE11_M_is_localEv.exit.thread.i.i.i.i.i.i.i
  %20 = getelementptr inbounds nuw i8, ptr %0, i64 8
  %21 = load ptr, ptr %20, align 8, !tbaa !11
  %22 = getelementptr inbounds nuw i8, ptr %0, i64 24
  %23 = icmp eq ptr %21, %22
  br i1 %23, label %_ZNKSt7__cxx1112basic_stringIcSt11char_traitsIcESaIcEE11_M_is_localEv.exit.thread.i.i.i.i.i.i.i.i, label %_ZNKSt7__cxx1112basic_stringIcSt11char_traitsIcESaIcEE11_M_is_localEv.exit.i.i.i.i.i.i.i.i

_ZNKSt7__cxx1112basic_stringIcSt11char_traitsIcESaIcEE11_M_is_localEv.exit.thread.i.i.i.i.i.i.i.i: ; preds = %_ZNSt10_Head_baseILm2EN8pybind116detail11type_casterI13ArgInspector1vEELb0EED2Ev.exit.i.i
  %24 = getelementptr inbounds nuw i8, ptr %0, i64 16
  %25 = load i64, ptr %24, align 8, !tbaa !78
  %26 = icmp ult i64 %25, 16
  tail call void @llvm.assume(i1 %26)
  br label %_ZNSt11_Tuple_implILm1EJN8pybind116detail11type_casterI13ArgInspector1vEES4_NS2_IivEENS2_I13ArgInspector2vEENS2_I17ArgAlwaysConvertsvEEEED2Ev.exit

_ZNKSt7__cxx1112basic_stringIcSt11char_traitsIcESaIcEE11_M_is_localEv.exit.i.i.i.i.i.i.i.i: ; preds = %_ZNSt10_Head_baseILm2EN8pybind116detail11type_casterI13ArgInspector1vEELb0EED2Ev.exit.i.i
  %27 = load i64, ptr %22, align 8, !tbaa !79
  %28 = add i64 %27, 1
  tail call void @_ZdlPvm(ptr noundef %21, i64 noundef %28) #34
  br label %_ZNSt11_Tuple_implILm1EJN8pybind116detail11type_casterI13ArgInspector1vEES4_NS2_IivEENS2_I13ArgInspector2vEENS2_I17ArgAlwaysConvertsvEEEED2Ev.exit

_ZNSt11_Tuple_implILm1EJN8pybind116detail11type_casterI13ArgInspector1vEES4_NS2_IivEENS2_I13ArgInspector2vEENS2_I17ArgAlwaysConvertsvEEEED2Ev.exit: ; preds = %_ZNKSt7__cxx1112basic_stringIcSt11char_traitsIcESaIcEE11_M_is_localEv.exit.thread.i.i.i.i.i.i.i.i, %_ZNKSt7__cxx1112basic_stringIcSt11char_traitsIcESaIcEE11_M_is_localEv.exit.i.i.i.i.i.i.i.i
  ret void
}